; Function Attrs: mustprogress nounwind uwtable
define void @_ZN5folly18LogStreamProcessor6logNowEv(ptr noundef nonnull align 8 dereferenceable(464) %0) local_unnamed_addr #0 align 2 personality ptr @__gxx_personality_v0 {
  %2 = alloca %"class.folly::LogMessage", align 8
  %3 = alloca %"class.folly::Range", align 8
  %4 = alloca %"class.std::__cxx11::basic_string", align 8
  %5 = load ptr, ptr %0, align 8, !tbaa !7
  call void @llvm.lifetime.start.p0(i64 176, ptr nonnull %2) #15
  %6 = getelementptr inbounds nuw i8, ptr %0, i64 8
  %7 = load i32, ptr %6, align 8, !tbaa !27
  %8 = getelementptr inbounds nuw i8, ptr %0, i64 16
  %.sroa.0.0.copyload = load ptr, ptr %8, align 8, !tbaa !28
  %.sroa.2.0..sroa_idx = getelementptr inbounds nuw i8, ptr %0, i64 24
  %.sroa.2.0.copyload = load ptr, ptr %.sroa.2.0..sroa_idx, align 8, !tbaa !28
  %9 = getelementptr inbounds nuw i8, ptr %0, i64 32
  %10 = load i32, ptr %9, align 8, !tbaa !29
  %11 = getelementptr inbounds nuw i8, ptr %0, i64 40
  call void @llvm.memcpy.p0.p0.i64(ptr noundef nonnull align 8 dereferenceable(16) %3, ptr noundef nonnull align 8 dereferenceable(16) %11, i64 16, i1 false), !tbaa.struct !34
  call void @llvm.lifetime.start.p0(i64 32, ptr nonnull %4) #15
  %12 = getelementptr inbounds nuw i8, ptr %0, i64 88
  call void @_ZN5folly18LogStreamProcessor20extractMessageStringB5cxx11ERNS_9LogStreamE(ptr dead_on_unwind nonnull writable sret(%"class.std::__cxx11::basic_string") align 8 %4, ptr noundef nonnull align 8 dereferenceable(464) %0, ptr noundef nonnull align 8 dereferenceable(112) %12) #15
  invoke void @_ZN5folly10LogMessageC1EPKNS_11LogCategoryENS_8LogLevelENS_5RangeIPKcEEjS8_ONSt7__cxx1112basic_stringIcSt11char_traitsIcESaIcEEE(ptr noundef nonnull align 8 dereferenceable(176) %2, ptr noundef %5, i32 noundef %7, ptr %.sroa.0.0.copyload, ptr %.sroa.2.0.copyload, i32 noundef %10, ptr noundef nonnull byval(%"class.folly::Range") align 8 %3, ptr noundef nonnull align 8 dereferenceable(32) %4)
          to label %13 unwind label %50

13:                                               ; preds = %1
  invoke void @_ZNK5folly11LogCategory12admitMessageERKNS_10LogMessageEb(ptr noundef nonnull align 8 dereferenceable(136) %5, ptr noundef nonnull align 8 dereferenceable(176) %2, i1 noundef zeroext false)
          to label %14 unwind label %50

14:                                               ; preds = %13
  %15 = getelementptr inbounds nuw i8, ptr %2, i64 144
  %16 = load ptr, ptr %15, align 8, !tbaa !32
  %17 = getelementptr inbounds nuw i8, ptr %2, i64 160
  %18 = icmp eq ptr %16, %17
  br i1 %18, label %_ZNKSt7__cxx1112basic_stringIcSt11char_traitsIcESaIcEE11_M_is_localEv.exit.thread.i.i.i, label %_ZNKSt7__cxx1112basic_stringIcSt11char_traitsIcESaIcEE11_M_is_localEv.exit.i.i.i

_ZNKSt7__cxx1112basic_stringIcSt11char_traitsIcESaIcEE11_M_is_localEv.exit.thread.i.i.i: ; preds = %14
  %19 = getelementptr inbounds nuw i8, ptr %2, i64 152
  %20 = load i64, ptr %19, align 8, !tbaa !31
  %21 = icmp ult i64 %20, 16
  call void @llvm.assume(i1 %21)
  br label %_ZNSt7__cxx1112basic_stringIcSt11char_traitsIcESaIcEED2Ev.exit.i

_ZNKSt7__cxx1112basic_stringIcSt11char_traitsIcESaIcEE11_M_is_localEv.exit.i.i.i: ; preds = %14
  %22 = load i64, ptr %17, align 8, !tbaa !33
  %23 = add i64 %22, 1
  call void @_ZdlPvm(ptr noundef %16, i64 noundef %23) #17
  br label %_ZNSt7__cxx1112basic_stringIcSt11char_traitsIcESaIcEED2Ev.exit.i

_ZNSt7__cxx1112basic_stringIcSt11char_traitsIcESaIcEED2Ev.exit.i: ; preds = %_ZNKSt7__cxx1112basic_stringIcSt11char_traitsIcESaIcEE11_M_is_localEv.exit.i.i.i, %_ZNKSt7__cxx1112basic_stringIcSt11char_traitsIcESaIcEE11_M_is_localEv.exit.thread.i.i.i
  %24 = getelementptr inbounds nuw i8, ptr %2, i64 112
  %25 = load ptr, ptr %24, align 8, !tbaa !32
  %26 = getelementptr inbounds nuw i8, ptr %2, i64 128
  %27 = icmp eq ptr %25, %26
  br i1 %27, label %_ZNKSt7__cxx1112basic_stringIcSt11char_traitsIcESaIcEE11_M_is_localEv.exit.thread.i.i2.i, label %_ZNKSt7__cxx1112basic_stringIcSt11char_traitsIcESaIcEE11_M_is_localEv.exit.i.i1.i

_ZNKSt7__cxx1112basic_stringIcSt11char_traitsIcESaIcEE11_M_is_localEv.exit.thread.i.i2.i: ; preds = %_ZNSt7__cxx1112basic_stringIcSt11char_traitsIcESaIcEED2Ev.exit.i
  %28 = getelementptr inbounds nuw i8, ptr %2, i64 120
  %29 = load i64, ptr %28, align 8, !tbaa !31
  %30 = icmp ult i64 %29, 16
  call void @llvm.assume(i1 %30)
  br label %_ZNSt7__cxx1112basic_stringIcSt11char_traitsIcESaIcEED2Ev.exit3.i

_ZNKSt7__cxx1112basic_stringIcSt11char_traitsIcESaIcEE11_M_is_localEv.exit.i.i1.i: ; preds = %_ZNSt7__cxx1112basic_stringIcSt11char_traitsIcESaIcEED2Ev.exit.i
  %31 = load i64, ptr %26, align 8, !tbaa !33
  %32 = add i64 %31, 1
  call void @_ZdlPvm(ptr noundef %25, i64 noundef %32) #17
  br label %_ZNSt7__cxx1112basic_stringIcSt11char_traitsIcESaIcEED2Ev.exit3.i

_ZNSt7__cxx1112basic_stringIcSt11char_traitsIcESaIcEED2Ev.exit3.i: ; preds = %_ZNKSt7__cxx1112basic_stringIcSt11char_traitsIcESaIcEE11_M_is_localEv.exit.i.i1.i, %_ZNKSt7__cxx1112basic_stringIcSt11char_traitsIcESaIcEE11_M_is_localEv.exit.thread.i.i2.i
  %33 = getelementptr inbounds nuw i8, ptr %2, i64 80
  %34 = load ptr, ptr %33, align 8, !tbaa !32
  %35 = getelementptr inbounds nuw i8, ptr %2, i64 96
  %36 = icmp eq ptr %34, %35
  br i1 %36, label %_ZNKSt7__cxx1112basic_stringIcSt11char_traitsIcESaIcEE11_M_is_localEv.exit.thread.i.i5.i, label %_ZNKSt7__cxx1112basic_stringIcSt11char_traitsIcESaIcEE11_M_is_localEv.exit.i.i4.i

_ZNKSt7__cxx1112basic_stringIcSt11char_traitsIcESaIcEE11_M_is_localEv.exit.thread.i.i5.i: ; preds = %_ZNSt7__cxx1112basic_stringIcSt11char_traitsIcESaIcEED2Ev.exit3.i
  %37 = getelementptr inbounds nuw i8, ptr %2, i64 88
  %38 = load i64, ptr %37, align 8, !tbaa !31
  %39 = icmp ult i64 %38, 16
  call void @llvm.assume(i1 %39)
  br label %_ZN5folly10LogMessageD2Ev.exit

_ZNKSt7__cxx1112basic_stringIcSt11char_traitsIcESaIcEE11_M_is_localEv.exit.i.i4.i: ; preds = %_ZNSt7__cxx1112basic_stringIcSt11char_traitsIcESaIcEED2Ev.exit3.i
  %40 = load i64, ptr %35, align 8, !tbaa !33
  %41 = add i64 %40, 1
  call void @_ZdlPvm(ptr noundef %34, i64 noundef %41) #17
  br label %_ZN5folly10LogMessageD2Ev.exit

_ZN5folly10LogMessageD2Ev.exit:                   ; preds = %_ZNKSt7__cxx1112basic_stringIcSt11char_traitsIcESaIcEE11_M_is_localEv.exit.thread.i.i5.i, %_ZNKSt7__cxx1112basic_stringIcSt11char_traitsIcESaIcEE11_M_is_localEv.exit.i.i4.i
  %42 = load ptr, ptr %4, align 8, !tbaa !32
  %43 = getelementptr inbounds nuw i8, ptr %4, i64 16
  %44 = icmp eq ptr %42, %43
  br i1 %44, label %_ZNKSt7__cxx1112basic_stringIcSt11char_traitsIcESaIcEE11_M_is_localEv.exit.thread.i.i, label %_ZNKSt7__cxx1112basic_stringIcSt11char_traitsIcESaIcEE11_M_is_localEv.exit.i.i

_ZNKSt7__cxx1112basic_stringIcSt11char_traitsIcESaIcEE11_M_is_localEv.exit.thread.i.i: ; preds = %_ZN5folly10LogMessageD2Ev.exit
  %45 = getelementptr inbounds nuw i8, ptr %4, i64 8
  %46 = load i64, ptr %45, align 8, !tbaa !31
  %47 = icmp ult i64 %46, 16
  call void @llvm.assume(i1 %47)
  br label %_ZNSt7__cxx1112basic_stringIcSt11char_traitsIcESaIcEED2Ev.exit

_ZNKSt7__cxx1112basic_stringIcSt11char_traitsIcESaIcEE11_M_is_localEv.exit.i.i: ; preds = %_ZN5folly10LogMessageD2Ev.exit
  %48 = load i64, ptr %43, align 8, !tbaa !33
  %49 = add i64 %48, 1
  call void @_ZdlPvm(ptr noundef %42, i64 noundef %49) #17
  br label %_ZNSt7__cxx1112basic_stringIcSt11char_traitsIcESaIcEED2Ev.exit

_ZNSt7__cxx1112basic_stringIcSt11char_traitsIcESaIcEED2Ev.exit: ; preds = %_ZNKSt7__cxx1112basic_stringIcSt11char_traitsIcESaIcEE11_M_is_localEv.exit.thread.i.i, %_ZNKSt7__cxx1112basic_stringIcSt11char_traitsIcESaIcEE11_M_is_localEv.exit.i.i
  call void @llvm.lifetime.end.p0(i64 32, ptr nonnull %4) #15
  call void @llvm.lifetime.end.p0(i64 176, ptr nonnull %2) #15
  ret void

50:                                               ; preds = %13, %1
  %51 = landingpad { ptr, i32 }
          catch ptr null
  %52 = extractvalue { ptr, i32 } %51, 0
  call void @__clang_call_terminate(ptr %52) #16
  unreachable
}